; Function Attrs: mustprogress nounwind uwtable
define hidden void @_ZN18InstanceKlassFlags24assign_class_loader_typeEPK15ClassLoaderData(ptr nocapture noundef nonnull align 2 dereferenceable(3) %0, ptr noundef %1) local_unnamed_addr #0 align 2 {
  %3 = load ptr, ptr @_ZN15ClassLoaderData27_the_null_class_loader_dataE, align 8
  %4 = icmp eq ptr %3, %1
  br i1 %4, label %.sink.split, label %5

5:                                                ; preds = %2
  %6 = getelementptr inbounds i8, ptr %1, i64 8
  %7 = load ptr, ptr %6, align 8
  %8 = icmp eq ptr %7, null
  br i1 %8, label %.sink.split, label %_ZNK15ClassLoaderData25is_boot_class_loader_dataEv.exit

_ZNK15ClassLoaderData25is_boot_class_loader_dataEv.exit: ; preds = %5
  %9 = load ptr, ptr @_ZN14AccessInternal15RuntimeDispatchILm548932EP7oopDescLNS_11BarrierTypeE2EE10_load_funcE, align 8
  %10 = tail call noundef ptr %9(ptr noundef nonnull %7) #5
  %11 = icmp eq ptr %10, null
  br i1 %11, label %.sink.split, label %12

12:                                               ; preds = %_ZNK15ClassLoaderData25is_boot_class_loader_dataEv.exit
  %13 = tail call noundef zeroext i1 @_ZNK15ClassLoaderData29is_platform_class_loader_dataEv(ptr noundef nonnull align 8 dereferenceable(160) %1) #5
  br i1 %13, label %.sink.split, label %14

14:                                               ; preds = %12
  %15 = tail call noundef zeroext i1 @_ZNK15ClassLoaderData27is_system_class_loader_dataEv(ptr noundef nonnull align 8 dereferenceable(160) %1) #5
  br i1 %15, label %.sink.split, label %18

.sink.split:                                      ; preds = %14, %12, %_ZNK15ClassLoaderData25is_boot_class_loader_dataEv.exit, %2, %5
  %.sink5 = phi i16 [ 128, %5 ], [ 128, %2 ], [ 128, %_ZNK15ClassLoaderData25is_boot_class_loader_dataEv.exit ], [ 256, %12 ], [ 512, %14 ]
  %16 = load i16, ptr %0, align 2
  %17 = or i16 %16, %.sink5
  store i16 %17, ptr %0, align 2
  br label %18

18:                                               ; preds = %.sink.split, %14
  ret void
}